; Function Attrs: nounwind uwtable
define internal fastcc void @gwrite(ptr noundef %0) unnamed_addr #11 {
  %2 = alloca %struct.agxbuf, align 8
  %3 = load ptr, ptr @outfile, align 8, !tbaa !8
  %.not = icmp eq ptr %3, null
  br i1 %.not, label %4, label %9

4:                                                ; preds = %1
  %5 = load ptr, ptr @stdout, align 8, !tbaa !14
  %6 = tail call i32 @agwrite(ptr noundef %0, ptr noundef %5) #23
  %7 = load ptr, ptr @stdout, align 8, !tbaa !14
  %8 = tail call i32 @fflush(ptr noundef %7)
  br label %64

9:                                                ; preds = %1
  call void @llvm.lifetime.start.p0(i64 32, ptr nonnull %2) #23
  call void @llvm.memset.p0.i64(ptr noundef nonnull align 8 dereferenceable(32) %2, i8 0, i64 32, i1 false)
  %10 = load i32, ptr @sufcnt, align 4, !tbaa !4
  %11 = icmp eq i32 %10, 0
  br i1 %11, label %12, label %29

12:                                               ; preds = %9
  %13 = tail call i64 @strlen(ptr noundef nonnull readonly dereferenceable(1) %3) #24
  %14 = icmp eq i64 %13, 0
  br i1 %14, label %agxbput.exit.i, label %agxblen.exit.i.i.i

agxblen.exit.i.i.i:                               ; preds = %12
  %15 = getelementptr inbounds nuw i8, ptr %2, i64 31
  %16 = getelementptr inbounds nuw i8, ptr %2, i64 8
  %17 = icmp ugt i64 %13, 31
  br i1 %17, label %18, label %.thread.i

18:                                               ; preds = %agxblen.exit.i.i.i
  call fastcc void @agxbmore(ptr noundef nonnull %2, i64 noundef %13)
  %.val.i25.pre.i.i.i = load i8, ptr %15, align 1, !tbaa !13
  %.not.i26.i.i.i = icmp eq i8 %.val.i25.pre.i.i.i, -1
  br i1 %.not.i26.i.i.i, label %24, label %.thread.i

.thread.i:                                        ; preds = %18, %agxblen.exit.i.i.i
  %.val.i25.i.i5.i = phi i8 [ %.val.i25.pre.i.i.i, %18 ], [ 0, %agxblen.exit.i.i.i ]
  %19 = zext i8 %.val.i25.i.i5.i to i64
  %20 = getelementptr inbounds nuw [31 x i8], ptr %2, i64 0, i64 %19
  call void @llvm.memcpy.p0.p0.i64(ptr nonnull align 1 %20, ptr nonnull readonly align 1 %3, i64 %13, i1 false)
  %21 = trunc i64 %13 to i8
  %22 = load i8, ptr %15, align 1, !tbaa !13
  %23 = add i8 %22, %21
  store i8 %23, ptr %15, align 1, !tbaa !13
  br label %agxbput.exit.i

24:                                               ; preds = %18
  %25 = load i64, ptr %16, align 8, !tbaa !13
  %26 = load ptr, ptr %2, align 8, !tbaa !13
  %27 = getelementptr inbounds nuw i8, ptr %26, i64 %25
  tail call void @llvm.memcpy.p0.p0.i64(ptr align 1 %27, ptr nonnull readonly align 1 %3, i64 %13, i1 false)
  %28 = add i64 %25, %13
  store i64 %28, ptr %16, align 8, !tbaa !13
  br label %agxbput.exit.i

29:                                               ; preds = %9
  %30 = load ptr, ptr @suffix, align 8, !tbaa !8
  %.not.i = icmp eq ptr %30, null
  %31 = load i64, ptr @rootpath.1, align 8, !tbaa !65
  %32 = trunc i64 %31 to i32
  %33 = load ptr, ptr @rootpath.0, align 8, !tbaa !67
  br i1 %.not.i, label %35, label %34

34:                                               ; preds = %29
  call void (ptr, ptr, ...) @agxbprint(ptr noundef nonnull %2, ptr noundef nonnull @.str.27, i32 noundef %32, ptr noundef %33, i32 noundef %10, ptr noundef nonnull %30)
  br label %agxbput.exit.i

35:                                               ; preds = %29
  call void (ptr, ptr, ...) @agxbprint(ptr noundef nonnull %2, ptr noundef nonnull @.str.28, i32 noundef %32, ptr noundef %33, i32 noundef %10)
  br label %agxbput.exit.i

agxbput.exit.i:                                   ; preds = %35, %34, %24, %.thread.i, %12
  %36 = load i32, ptr @sufcnt, align 4, !tbaa !4
  %37 = add nsw i32 %36, 1
  store i32 %37, ptr @sufcnt, align 4, !tbaa !4
  %38 = getelementptr inbounds nuw i8, ptr %2, i64 31
  %.val.i.i = load i8, ptr %38, align 1, !tbaa !13
  %.not.i.i = icmp eq i8 %.val.i.i, -1
  br i1 %.not.i.i, label %agxbsizeof.exit.i.i2.i, label %agxblen.exit.i.i

agxblen.exit.i.i:                                 ; preds = %agxbput.exit.i
  %39 = zext i8 %.val.i.i to i64
  %40 = call noalias ptr @strndup(ptr noundef nonnull readonly %2, i64 noundef %39) #23
  %41 = icmp eq ptr %40, null
  br i1 %41, label %42, label %getName.exit

42:                                               ; preds = %agxblen.exit.i.i
  %43 = load ptr, ptr @stderr, align 8, !tbaa !14
  %44 = add nuw nsw i64 %39, 1
  %45 = tail call i32 (ptr, ptr, ...) @fprintf(ptr noundef %43, ptr noundef nonnull @.str.22, i64 noundef %44) #25
  tail call fastcc void @graphviz_exit(i32 noundef 1) #26
  unreachable

agxbsizeof.exit.i.i2.i:                           ; preds = %agxbput.exit.i
  %46 = getelementptr inbounds nuw i8, ptr %2, i64 8
  %47 = load i64, ptr %46, align 8, !tbaa !13
  %48 = getelementptr inbounds nuw i8, ptr %2, i64 16
  %49 = load i64, ptr %48, align 8, !tbaa !13
  %.not.i7.i.i = icmp ult i64 %47, %49
  br i1 %.not.i7.i.i, label %.thread.i.i, label %50

50:                                               ; preds = %agxbsizeof.exit.i.i2.i
  call fastcc void @agxbmore(ptr noundef nonnull %2, i64 noundef 1)
  %.val.i15.pre.i.i.i = load i8, ptr %38, align 1, !tbaa !13
  %.not.i16.i.i.i = icmp eq i8 %.val.i15.pre.i.i.i, -1
  br i1 %.not.i16.i.i.i, label %..thread_crit_edge.i.i, label %51

..thread_crit_edge.i.i:                           ; preds = %50
  %.pre.i.i = load i64, ptr %46, align 8, !tbaa !13
  br label %.thread.i.i

51:                                               ; preds = %50
  %52 = zext i8 %.val.i15.pre.i.i.i to i64
  %53 = getelementptr inbounds nuw [31 x i8], ptr %2, i64 0, i64 %52
  store i8 0, ptr %53, align 1, !tbaa !13
  %.pre.i = load ptr, ptr %2, align 8, !tbaa !13
  br label %getName.exit

.thread.i.i:                                      ; preds = %..thread_crit_edge.i.i, %agxbsizeof.exit.i.i2.i
  %54 = phi i64 [ %.pre.i.i, %..thread_crit_edge.i.i ], [ %47, %agxbsizeof.exit.i.i2.i ]
  %55 = load ptr, ptr %2, align 8, !tbaa !13
  %56 = getelementptr inbounds nuw i8, ptr %55, i64 %54
  store i8 0, ptr %56, align 1, !tbaa !13
  br label %getName.exit

getName.exit:                                     ; preds = %agxblen.exit.i.i, %51, %.thread.i.i
  %.0.i.i = phi ptr [ %40, %agxblen.exit.i.i ], [ %55, %.thread.i.i ], [ %.pre.i, %51 ]
  call void @llvm.lifetime.end.p0(i64 32, ptr nonnull %2) #23
  %57 = tail call noalias ptr @fopen(ptr noundef %.0.i.i, ptr noundef nonnull @.str.24)
  %.not9 = icmp eq ptr %57, null
  br i1 %.not9, label %58, label %61

58:                                               ; preds = %getName.exit
  %59 = load ptr, ptr @stderr, align 8, !tbaa !14
  %60 = tail call i32 (ptr, ptr, ...) @fprintf(ptr noundef %59, ptr noundef nonnull @.str.25, ptr noundef %.0.i.i) #25
  tail call void @perror(ptr noundef nonnull @.str.26) #30
  tail call void @free(ptr noundef %.0.i.i) #23
  tail call fastcc void @graphviz_exit(i32 noundef 1) #26
  unreachable

61:                                               ; preds = %getName.exit
  tail call void @free(ptr noundef %.0.i.i) #23
  %62 = tail call i32 @agwrite(ptr noundef %0, ptr noundef nonnull %57) #23
  %63 = tail call i32 @fclose(ptr noundef nonnull %57)
  br label %64

64:                                               ; preds = %61, %4
  ret void
}